target datalayout = "e-m:e-p270:32:32-p271:32:32-p272:64:64-i64:64-i128:128-f80:128-n8:16:32:64-S128"
target triple = "x86_64-pc-linux-gnu"

%struct.Sfm_Dec_t_ = type { ptr, ptr, ptr, ptr, ptr, %struct.Vec_Int_t_, %struct.Vec_Wrd_t_, %struct.Vec_Wec_t_, %struct.Vec_Ptr_t_, i32, i32, i32, i32, [4 x i32], [4 x i32], i32, i32, i32, i32, i32, i32, i32, i32, i32, ptr, i64, %struct.Vec_Int_t_, %struct.Vec_Int_t_, %struct.Vec_Wec_t_, %struct.Vec_Int_t_, %struct.Vec_Int_t_, %struct.Vec_Int_t_, %struct.Vec_Int_t_, %struct.Vec_Wrd_t_, %struct.Vec_Wrd_t_, %struct.Vec_Ptr_t_, %struct.Vec_Ptr_t_, ptr, %struct.Vec_Wec_t_, [2 x %struct.Vec_Int_t_], [2 x %struct.Vec_Wrd_t_], [2 x i32], [2 x i32], i32, i32, [8 x [4 x i64]], [8 x ptr], [8 x ptr], %struct.Vec_Int_t_, %struct.Vec_Int_t_, %struct.Vec_Int_t_, %struct.Vec_Int_t_, %struct.Vec_Int_t_, %struct.Vec_Int_t_, %struct.Vec_Int_t_, [4 x i64], i32, i64, i64, i64, i64, i64, i64, i64, i64, i64, i64, i64, i32, i32, i32, i32, i32, i32, i32, i32, i32, i32, i32, i32, i32, i32, i32, i32, i32, i32, i32, i32, i32, i64, i64, [9 x i32], [9 x i32] }
%struct.Vec_Wrd_t_ = type { i32, i32, ptr }
%struct.Vec_Ptr_t_ = type { i32, i32, ptr }
%struct.Vec_Wec_t_ = type { i32, i32, ptr }
%struct.Vec_Int_t_ = type { i32, i32, ptr }
%struct.Abc_Ntk_t_ = type { i32, i32, ptr, ptr, ptr, ptr, ptr, ptr, ptr, ptr, ptr, ptr, ptr, [11 x i32], i32, i32, i32, i32, ptr, i32, ptr, ptr, i32, i32, i32, double, i32, %struct.Vec_Int_t_, ptr, ptr, ptr, ptr, ptr, float, i32, ptr, ptr, ptr, ptr, ptr, ptr, ptr, ptr, ptr, ptr, ptr, ptr, ptr, ptr, ptr, ptr, ptr, ptr, ptr, ptr, ptr, ptr }
%struct.Abc_Obj_t_ = type { ptr, ptr, i32, i32, %struct.Vec_Int_t_, %struct.Vec_Int_t_, %union.anon, %union.anon.0 }
%union.anon = type { ptr }
%union.anon.0 = type { ptr }

; Function Attrs: inlinehint nounwind uwtable
define internal i32 @Scl_Flt2Int(float noundef %0) #5 {
  %2 = alloca float, align 4
  store float %0, ptr %2, align 4, !tbaa !84
  %3 = load float, ptr %2, align 4, !tbaa !84
  %4 = fmul float 1.000000e+03, %3
  %5 = fptosi float %4 to i32
  ret i32 %5
}

; Function Attrs: inlinehint nounwind uwtable
define internal ptr @Vec_PtrEntry(ptr noundef %0, i32 noundef %1) #5 {
  %3 = alloca ptr, align 8
  %4 = alloca i32, align 4
  store ptr %0, ptr %3, align 8, !tbaa !96
  store i32 %1, ptr %4, align 4, !tbaa !79
  %5 = load ptr, ptr %3, align 8, !tbaa !96
  %6 = getelementptr inbounds nuw %struct.Vec_Ptr_t_, ptr %5, i32 0, i32 2
  %7 = load ptr, ptr %6, align 8, !tbaa !113
  %8 = load i32, ptr %4, align 4, !tbaa !79
  %9 = sext i32 %8 to i64
  %10 = getelementptr inbounds ptr, ptr %7, i64 %9
  %11 = load ptr, ptr %10, align 8, !tbaa !133
  ret ptr %11
}

; Function Attrs: inlinehint nounwind uwtable
define internal i32 @Abc_ObjFaninNum(ptr noundef %0) #5 {
  %2 = alloca ptr, align 8
  store ptr %0, ptr %2, align 8, !tbaa !92
  %3 = load ptr, ptr %2, align 8, !tbaa !92
  %4 = getelementptr inbounds nuw %struct.Abc_Obj_t_, ptr %3, i32 0, i32 4
  %5 = getelementptr inbounds nuw %struct.Vec_Int_t_, ptr %4, i32 0, i32 1
  %6 = load i32, ptr %5, align 4, !tbaa !146
  ret i32 %6
}

; Function Attrs: inlinehint nounwind uwtable
define internal i32 @Abc_ObjIsNode(ptr noundef %0) #5 {
  %2 = alloca ptr, align 8
  store ptr %0, ptr %2, align 8, !tbaa !92
  %3 = load ptr, ptr %2, align 8, !tbaa !92
  %4 = getelementptr inbounds nuw %struct.Abc_Obj_t_, ptr %3, i32 0, i32 3
  %5 = load i32, ptr %4, align 4
  %6 = and i32 %5, 15
  %7 = icmp eq i32 %6, 7
  %8 = zext i1 %7 to i32
  ret i32 %8
}

; Function Attrs: inlinehint nounwind uwtable
define internal ptr @Abc_ObjFanout(ptr noundef %0, i32 noundef %1) #5 {
  %3 = alloca ptr, align 8
  %4 = alloca i32, align 4
  store ptr %0, ptr %3, align 8, !tbaa !92
  store i32 %1, ptr %4, align 4, !tbaa !79
  %5 = load ptr, ptr %3, align 8, !tbaa !92
  %6 = getelementptr inbounds nuw %struct.Abc_Obj_t_, ptr %5, i32 0, i32 0
  %7 = load ptr, ptr %6, align 8, !tbaa !147
  %8 = getelementptr inbounds nuw %struct.Abc_Ntk_t_, ptr %7, i32 0, i32 5
  %9 = load ptr, ptr %8, align 8, !tbaa !91
  %10 = getelementptr inbounds nuw %struct.Vec_Ptr_t_, ptr %9, i32 0, i32 2
  %11 = load ptr, ptr %10, align 8, !tbaa !113
  %12 = load ptr, ptr %3, align 8, !tbaa !92
  %13 = getelementptr inbounds nuw %struct.Abc_Obj_t_, ptr %12, i32 0, i32 5
  %14 = getelementptr inbounds nuw %struct.Vec_Int_t_, ptr %13, i32 0, i32 2
  %15 = load ptr, ptr %14, align 8, !tbaa !156
  %16 = load i32, ptr %4, align 4, !tbaa !79
  %17 = sext i32 %16 to i64
  %18 = getelementptr inbounds i32, ptr %15, i64 %17
  %19 = load i32, ptr %18, align 4, !tbaa !79
  %20 = sext i32 %19 to i64
  %21 = getelementptr inbounds ptr, ptr %11, i64 %20
  %22 = load ptr, ptr %21, align 8, !tbaa !133
  ret ptr %22
}

; Function Attrs: inlinehint nounwind uwtable
define internal i32 @Abc_ObjFanoutNum(ptr noundef %0) #5 {
  %2 = alloca ptr, align 8
  store ptr %0, ptr %2, align 8, !tbaa !92
  %3 = load ptr, ptr %2, align 8, !tbaa !92
  %4 = getelementptr inbounds nuw %struct.Abc_Obj_t_, ptr %3, i32 0, i32 5
  %5 = getelementptr inbounds nuw %struct.Vec_Int_t_, ptr %4, i32 0, i32 1
  %6 = load i32, ptr %5, align 4, !tbaa !143
  ret i32 %6
}

; Function Attrs: nounwind uwtable
define i32 @Sfm_DecComputeFlipInvGain(ptr noundef %0, ptr noundef %1, ptr noundef %2) #0 {
  %4 = alloca ptr, align 8
  %5 = alloca ptr, align 8
  %6 = alloca ptr, align 8
  %7 = alloca ptr, align 8
  %8 = alloca ptr, align 8
  %9 = alloca ptr, align 8
  %10 = alloca i32, align 4
  %11 = alloca i32, align 4
  %12 = alloca i32, align 4
  %13 = alloca i32, align 4
  store ptr %0, ptr %4, align 8, !tbaa !33
  store ptr %1, ptr %5, align 8, !tbaa !92
  store ptr %2, ptr %6, align 8, !tbaa !134
  call void @llvm.lifetime.start.p0(i64 8, ptr %7) #12
  call void @llvm.lifetime.start.p0(i64 8, ptr %8) #12
  call void @llvm.lifetime.start.p0(i64 8, ptr %9) #12
  call void @llvm.lifetime.start.p0(i64 4, ptr %10) #12
  call void @llvm.lifetime.start.p0(i64 4, ptr %11) #12
  call void @llvm.lifetime.start.p0(i64 4, ptr %12) #12
  store i32 0, ptr %12, align 4, !tbaa !79
  call void @llvm.lifetime.start.p0(i64 4, ptr %13) #12
  store i32 0, ptr %13, align 4, !tbaa !79
  store i32 0, ptr %10, align 4, !tbaa !79
  br label %14

14:                                               ; preds = %77, %3
  %15 = load i32, ptr %10, align 4, !tbaa !79
  %16 = load ptr, ptr %5, align 8, !tbaa !92
  %17 = call i32 @Abc_ObjFanoutNum(ptr noundef %16)
  %18 = icmp slt i32 %15, %17
  br i1 %18, label %19, label %23

19:                                               ; preds = %14
  %20 = load ptr, ptr %5, align 8, !tbaa !92
  %21 = load i32, ptr %10, align 4, !tbaa !79
  %22 = call ptr @Abc_ObjFanout(ptr noundef %20, i32 noundef %21)
  store ptr %22, ptr %7, align 8, !tbaa !92
  br label %23

23:                                               ; preds = %19, %14
  %24 = phi i1 [ false, %14 ], [ true, %19 ]
  br i1 %24, label %25, label %80

25:                                               ; preds = %23
  %26 = load ptr, ptr %7, align 8, !tbaa !92
  %27 = call i32 @Abc_ObjIsNode(ptr noundef %26)
  %28 = icmp ne i32 %27, 0
  br i1 %28, label %30, label %29

29:                                               ; preds = %25
  store i32 1, ptr %12, align 4, !tbaa !79
  br label %77

30:                                               ; preds = %25
  %31 = load ptr, ptr %7, align 8, !tbaa !92
  %32 = getelementptr inbounds nuw %struct.Abc_Obj_t_, ptr %31, i32 0, i32 6
  %33 = load ptr, ptr %32, align 8, !tbaa !141
  store ptr %33, ptr %8, align 8, !tbaa !154
  %34 = load ptr, ptr %7, align 8, !tbaa !92
  %35 = call i32 @Abc_ObjFaninNum(ptr noundef %34)
  %36 = icmp eq i32 %35, 1
  br i1 %36, label %37, label %47

37:                                               ; preds = %30
  %38 = load ptr, ptr %8, align 8, !tbaa !154
  %39 = call i32 @Mio_GateIsInv(ptr noundef %38)
  %40 = icmp ne i32 %39, 0
  br i1 %40, label %41, label %47

41:                                               ; preds = %37
  %42 = load ptr, ptr %4, align 8, !tbaa !33
  %43 = getelementptr inbounds nuw %struct.Sfm_Dec_t_, ptr %42, i32 0, i32 22
  %44 = load i32, ptr %43, align 4, !tbaa !54
  %45 = load i32, ptr %13, align 4, !tbaa !79
  %46 = add nsw i32 %45, %44
  store i32 %46, ptr %13, align 4, !tbaa !79
  br label %77

47:                                               ; preds = %37, %30
  %48 = load ptr, ptr %4, align 8, !tbaa !33
  %49 = getelementptr inbounds nuw %struct.Sfm_Dec_t_, ptr %48, i32 0, i32 6
  %50 = load ptr, ptr %8, align 8, !tbaa !154
  %51 = call i32 @Mio_GateReadValue(ptr noundef %50)
  %52 = load ptr, ptr %7, align 8, !tbaa !92
  %53 = call i32 @Abc_ObjFaninNum(ptr noundef %52)
  %54 = load ptr, ptr %7, align 8, !tbaa !92
  %55 = load ptr, ptr %5, align 8, !tbaa !92
  %56 = call i32 @Abc_NodeFindFanin(ptr noundef %54, ptr noundef %55)
  %57 = call i32 @Sfm_LibFindComplInputGate(ptr noundef %49, i32 noundef %51, i32 noundef %53, i32 noundef %56, ptr noundef null)
  store i32 %57, ptr %11, align 4, !tbaa !79
  %58 = load i32, ptr %11, align 4, !tbaa !79
  %59 = icmp eq i32 %58, -1
  br i1 %59, label %60, label %61

60:                                               ; preds = %47
  store i32 1, ptr %12, align 4, !tbaa !79
  br label %77

61:                                               ; preds = %47
  %62 = load ptr, ptr %4, align 8, !tbaa !33
  %63 = getelementptr inbounds nuw %struct.Sfm_Dec_t_, ptr %62, i32 0, i32 8
  %64 = load i32, ptr %11, align 4, !tbaa !79
  %65 = call ptr @Vec_PtrEntry(ptr noundef %63, i32 noundef %64)
  store ptr %65, ptr %9, align 8, !tbaa !154
  %66 = load ptr, ptr %8, align 8, !tbaa !154
  %67 = call double @Mio_GateReadArea(ptr noundef %66)
  %68 = fptrunc double %67 to float
  %69 = call i32 @Scl_Flt2Int(float noundef %68)
  %70 = load ptr, ptr %9, align 8, !tbaa !154
  %71 = call double @Mio_GateReadArea(ptr noundef %70)
  %72 = fptrunc double %71 to float
  %73 = call i32 @Scl_Flt2Int(float noundef %72)
  %74 = sub nsw i32 %69, %73
  %75 = load i32, ptr %13, align 4, !tbaa !79
  %76 = add nsw i32 %75, %74
  store i32 %76, ptr %13, align 4, !tbaa !79
  br label %77

77:                                               ; preds = %61, %60, %41, %29
  %78 = load i32, ptr %10, align 4, !tbaa !79
  %79 = add nsw i32 %78, 1
  store i32 %79, ptr %10, align 4, !tbaa !79
  br label %14, !llvm.loop !155

80:                                               ; preds = %23
  %81 = load i32, ptr %12, align 4, !tbaa !79
  %82 = icmp ne i32 %81, 0
  br i1 %82, label %83, label %89

83:                                               ; preds = %80
  %84 = load ptr, ptr %4, align 8, !tbaa !33
  %85 = getelementptr inbounds nuw %struct.Sfm_Dec_t_, ptr %84, i32 0, i32 22
  %86 = load i32, ptr %85, align 4, !tbaa !54
  %87 = load i32, ptr %13, align 4, !tbaa !79
  %88 = sub nsw i32 %87, %86
  store i32 %88, ptr %13, align 4, !tbaa !79
  br label %89

89:                                               ; preds = %83, %80
  %90 = load ptr, ptr %6, align 8, !tbaa !134
  %91 = icmp ne ptr %90, null
  br i1 %91, label %92, label %95

92:                                               ; preds = %89
  %93 = load i32, ptr %12, align 4, !tbaa !79
  %94 = load ptr, ptr %6, align 8, !tbaa !134
  store i32 %93, ptr %94, align 4, !tbaa !79
  br label %95

95:                                               ; preds = %92, %89
  %96 = load i32, ptr %13, align 4, !tbaa !79
  call void @llvm.lifetime.end.p0(i64 4, ptr %13) #12
  call void @llvm.lifetime.end.p0(i64 4, ptr %12) #12
  call void @llvm.lifetime.end.p0(i64 4, ptr %11) #12
  call void @llvm.lifetime.end.p0(i64 4, ptr %10) #12
  call void @llvm.lifetime.end.p0(i64 8, ptr %9) #12
  call void @llvm.lifetime.end.p0(i64 8, ptr %8) #12
  call void @llvm.lifetime.end.p0(i64 8, ptr %7) #12
  ret i32 %96
}