; Function Attrs: nounwind uwtable
define i32 @Sfm_DecComputeFlipInvGain(ptr noundef %0, ptr noundef %1, ptr noundef writeonly %2) local_unnamed_addr #2 {
  %4 = getelementptr i8, ptr %1, i64 44
  %.val3943 = load i32, ptr %4, align 4, !tbaa !126
  %5 = icmp sgt i32 %.val3943, 0
  br i1 %5, label %.lr.ph, label %.critedge.thread

.lr.ph:                                           ; preds = %3
  %6 = getelementptr i8, ptr %1, i64 48
  %7 = getelementptr inbounds nuw i8, ptr %0, i64 180
  %8 = getelementptr inbounds nuw i8, ptr %0, i64 56
  %9 = getelementptr i8, ptr %0, i64 96
  br label %10

10:                                               ; preds = %.lr.ph, %49
  %indvars.iv = phi i64 [ 0, %.lr.ph ], [ %indvars.iv.next, %49 ]
  %.046 = phi i32 [ 0, %.lr.ph ], [ %.1, %49 ]
  %.02845 = phi i32 [ 0, %.lr.ph ], [ %.129, %49 ]
  %.val40 = load ptr, ptr %1, align 8, !tbaa !124
  %.val41 = load ptr, ptr %6, align 8, !tbaa !133
  %11 = getelementptr i8, ptr %.val40, i64 32
  %.val40.val = load ptr, ptr %11, align 8, !tbaa !78
  %12 = getelementptr i8, ptr %.val40.val, i64 8
  %.val40.val.val = load ptr, ptr %12, align 8, !tbaa !80
  %13 = getelementptr inbounds nuw i32, ptr %.val41, i64 %indvars.iv
  %14 = load i32, ptr %13, align 4, !tbaa !96
  %15 = sext i32 %14 to i64
  %16 = getelementptr inbounds ptr, ptr %.val40.val.val, i64 %15
  %17 = load ptr, ptr %16, align 8, !tbaa !81
  %18 = getelementptr i8, ptr %17, i64 20
  %.val36 = load i32, ptr %18, align 4
  %19 = and i32 %.val36, 15
  %.not42 = icmp eq i32 %19, 7
  br i1 %.not42, label %20, label %49

20:                                               ; preds = %10
  %21 = getelementptr inbounds nuw i8, ptr %17, i64 56
  %22 = load ptr, ptr %21, align 8, !tbaa !119
  %23 = getelementptr i8, ptr %17, i64 28
  %.val38 = load i32, ptr %23, align 4, !tbaa !121
  %24 = icmp eq i32 %.val38, 1
  br i1 %24, label %25, label %30

25:                                               ; preds = %20
  %26 = tail call i32 @Mio_GateIsInv(ptr noundef %22) #25
  %.not35 = icmp eq i32 %26, 0
  br i1 %.not35, label %30, label %27

27:                                               ; preds = %25
  %28 = load i32, ptr %7, align 4, !tbaa !44
  %29 = add nsw i32 %28, %.046
  br label %49

30:                                               ; preds = %25, %20
  %31 = tail call i32 @Mio_GateReadValue(ptr noundef %22) #25
  %.val37 = load i32, ptr %23, align 4, !tbaa !121
  %32 = tail call i32 @Abc_NodeFindFanin(ptr noundef nonnull %17, ptr noundef nonnull %1) #25
  %33 = tail call i32 @Sfm_LibFindComplInputGate(ptr noundef nonnull %8, i32 noundef %31, i32 noundef %.val37, i32 noundef %32, ptr noundef null) #25
  %34 = icmp eq i32 %33, -1
  br i1 %34, label %49, label %35

35:                                               ; preds = %30
  %.val = load ptr, ptr %9, align 8, !tbaa !80
  %36 = sext i32 %33 to i64
  %37 = getelementptr inbounds ptr, ptr %.val, i64 %36
  %38 = load ptr, ptr %37, align 8, !tbaa !81
  %39 = tail call double @Mio_GateReadArea(ptr noundef %22) #25
  %40 = fptrunc double %39 to float
  %41 = fmul float %40, 1.000000e+03
  %42 = fptosi float %41 to i32
  %43 = tail call double @Mio_GateReadArea(ptr noundef %38) #25
  %44 = fptrunc double %43 to float
  %45 = fmul float %44, 1.000000e+03
  %46 = fptosi float %45 to i32
  %47 = add i32 %.046, %42
  %48 = sub i32 %47, %46
  br label %49

49:                                               ; preds = %30, %10, %35, %27
  %.129 = phi i32 [ %.02845, %27 ], [ %.02845, %35 ], [ 1, %10 ], [ 1, %30 ]
  %.1 = phi i32 [ %29, %27 ], [ %48, %35 ], [ %.046, %10 ], [ %.046, %30 ]
  %indvars.iv.next = add nuw nsw i64 %indvars.iv, 1
  %.val39 = load i32, ptr %4, align 4, !tbaa !126
  %50 = sext i32 %.val39 to i64
  %51 = icmp slt i64 %indvars.iv.next, %50
  br i1 %51, label %10, label %.critedge, !llvm.loop !134

.critedge:                                        ; preds = %49
  %.not = icmp eq i32 %.129, 0
  br i1 %.not, label %.critedge.thread, label %52

52:                                               ; preds = %.critedge
  %53 = getelementptr inbounds nuw i8, ptr %0, i64 180
  %54 = load i32, ptr %53, align 4, !tbaa !44
  %55 = sub nsw i32 %.1, %54
  br label %.critedge.thread

.critedge.thread:                                 ; preds = %3, %52, %.critedge
  %.028.lcssa52 = phi i32 [ %.129, %52 ], [ 0, %.critedge ], [ 0, %3 ]
  %.2 = phi i32 [ %55, %52 ], [ %.1, %.critedge ], [ 0, %3 ]
  %.not33 = icmp eq ptr %2, null
  br i1 %.not33, label %57, label %56

56:                                               ; preds = %.critedge.thread
  store i32 %.028.lcssa52, ptr %2, align 4, !tbaa !96
  br label %57

57:                                               ; preds = %56, %.critedge.thread
  ret i32 %.2
}